; ModuleID = 'source-C-CXX/60/1314.cpp'
source_filename = "source-C-CXX/60/1314.cpp"
target datalayout = "e-m:e-p270:32:32-p271:32:32-p272:64:64-i64:64-f80:128-n8:16:32:64-S128"
target triple = "x86_64-pc-linux-gnu"

%"class.std::ios_base::Init" = type { i8 }
%"class.std::basic_istream" = type { i32 (...)**, i64, %"class.std::basic_ios" }
%"class.std::basic_ios" = type { %"class.std::ios_base", %"class.std::basic_ostream"*, i8, i8, %"class.std::basic_streambuf"*, %"class.std::ctype"*, %"class.std::num_put"*, %"class.std::num_get"* }
%"class.std::ios_base" = type { i32 (...)**, i64, i64, i32, i32, i32, %"struct.std::ios_base::_Callback_list"*, %"struct.std::ios_base::_Words", [8 x %"struct.std::ios_base::_Words"], i32, %"struct.std::ios_base::_Words"*, %"class.std::locale" }
%"struct.std::ios_base::_Callback_list" = type { %"struct.std::ios_base::_Callback_list"*, void (i32, %"class.std::ios_base"*, i32)*, i32, i32 }
%"struct.std::ios_base::_Words" = type { i8*, i64 }
%"class.std::locale" = type { %"class.std::locale::_Impl"* }
%"class.std::locale::_Impl" = type { i32, %"class.std::locale::facet"**, i64, %"class.std::locale::facet"**, i8** }
%"class.std::locale::facet" = type <{ i32 (...)**, i32, [4 x i8] }>
%"class.std::basic_ostream" = type { i32 (...)**, %"class.std::basic_ios" }
%"class.std::basic_streambuf" = type { i32 (...)**, i8*, i8*, i8*, i8*, i8*, i8*, %"class.std::locale" }
%"class.std::ctype" = type <{ %"class.std::locale::facet.base", [4 x i8], %struct.__locale_struct*, i8, [7 x i8], i32*, i32*, i16*, i8, [256 x i8], [256 x i8], i8, [6 x i8] }>
%"class.std::locale::facet.base" = type <{ i32 (...)**, i32 }>
%struct.__locale_struct = type { [13 x %struct.__locale_data*], i16*, i32*, i32*, [13 x i8*] }
%struct.__locale_data = type opaque
%"class.std::num_put" = type { %"class.std::locale::facet.base", [4 x i8] }
%"class.std::num_get" = type { %"class.std::locale::facet.base", [4 x i8] }

@_ZStL8__ioinit = internal global %"class.std::ios_base::Init" zeroinitializer, align 1
@__dso_handle = external hidden global i8
@_ZSt3cin = external global %"class.std::basic_istream", align 8
@_ZSt4cout = external global %"class.std::basic_ostream", align 8
@llvm.global_ctors = appending global [1 x { i32, void ()*, i8* }] [{ i32, void ()*, i8* } { i32 65535, void ()* @_GLOBAL__sub_I_1314.cpp, i8* null }]

declare void @_ZNSt8ios_base4InitC1Ev(%"class.std::ios_base::Init"* nonnull align 1 dereferenceable(1)) unnamed_addr #0

; Function Attrs: nounwind
declare void @_ZNSt8ios_base4InitD1Ev(%"class.std::ios_base::Init"* nonnull align 1 dereferenceable(1)) unnamed_addr #1

; Function Attrs: nofree nounwind
declare i32 @__cxa_atexit(void (i8*)*, i8*, i8*) local_unnamed_addr #2

; Function Attrs: mustprogress norecurse sspstrong uwtable
define dso_local i32 @main() local_unnamed_addr #3 {
  %1 = alloca i32, align 4
  %2 = alloca [21 x i32], align 16
  %3 = bitcast i32* %1 to i8*
  call void @llvm.lifetime.start.p0i8(i64 4, i8* nonnull %3) #8
  %4 = bitcast [21 x i32]* %2 to i8*
  call void @llvm.lifetime.start.p0i8(i64 84, i8* nonnull %4) #8
  %5 = call nonnull align 8 dereferenceable(16) %"class.std::basic_istream"* @_ZNSirsERi(%"class.std::basic_istream"* nonnull align 8 dereferenceable(16) @_ZSt3cin, i32* nonnull align 4 dereferenceable(4) %1)
  %6 = load i32, i32* %1, align 4, !tbaa !5
  %7 = icmp slt i32 %6, 1
  br i1 %7, label %86, label %8

8:                                                ; preds = %0, %78
  %9 = phi i64 [ %82, %78 ], [ 1, %0 ]
  %10 = getelementptr inbounds [21 x i32], [21 x i32]* %2, i64 0, i64 %9
  %11 = call nonnull align 8 dereferenceable(16) %"class.std::basic_istream"* @_ZNSirsERi(%"class.std::basic_istream"* nonnull align 8 dereferenceable(16) @_ZSt3cin, i32* nonnull align 4 dereferenceable(4) %10)
  %12 = load i32, i32* %10, align 4, !tbaa !5
  %13 = add i32 %12, -1
  %14 = icmp ult i32 %13, 2
  br i1 %14, label %50, label %15

15:                                               ; preds = %8
  %16 = icmp slt i32 %12, 3
  br i1 %16, label %50, label %17

17:                                               ; preds = %15
  %18 = add i32 %12, -2
  %19 = add i32 %12, -3
  %20 = and i32 %18, 7
  %21 = icmp ult i32 %19, 7
  br i1 %21, label %38, label %22

22:                                               ; preds = %17
  %23 = and i32 %18, -8
  br label %24

24:                                               ; preds = %24, %22
  %25 = phi i32 [ 1, %22 ], [ %35, %24 ]
  %26 = phi i32 [ 1, %22 ], [ %34, %24 ]
  %27 = phi i32 [ %23, %22 ], [ %36, %24 ]
  %28 = add nsw i32 %26, %25
  %29 = add nsw i32 %25, %28
  %30 = add nsw i32 %28, %29
  %31 = add nsw i32 %29, %30
  %32 = add nsw i32 %30, %31
  %33 = add nsw i32 %31, %32
  %34 = add nsw i32 %32, %33
  %35 = add nsw i32 %33, %34
  %36 = add i32 %27, -8
  %37 = icmp eq i32 %36, 0
  br i1 %37, label %38, label %24, !llvm.loop !9

38:                                               ; preds = %24, %17
  %39 = phi i32 [ undef, %17 ], [ %35, %24 ]
  %40 = phi i32 [ 1, %17 ], [ %35, %24 ]
  %41 = phi i32 [ 1, %17 ], [ %34, %24 ]
  %42 = icmp eq i32 %20, 0
  br i1 %42, label %50, label %43

43:                                               ; preds = %38, %43
  %44 = phi i32 [ %47, %43 ], [ %40, %38 ]
  %45 = phi i32 [ %44, %43 ], [ %41, %38 ]
  %46 = phi i32 [ %48, %43 ], [ %20, %38 ]
  %47 = add nsw i32 %45, %44
  %48 = add i32 %46, -1
  %49 = icmp eq i32 %48, 0
  br i1 %49, label %50, label %43, !llvm.loop !11

50:                                               ; preds = %38, %43, %8, %15
  %51 = phi i32 [ 1, %8 ], [ undef, %15 ], [ %39, %38 ], [ %47, %43 ]
  %52 = call nonnull align 8 dereferenceable(8) %"class.std::basic_ostream"* @_ZNSolsEi(%"class.std::basic_ostream"* nonnull align 8 dereferenceable(8) @_ZSt4cout, i32 %51)
  %53 = bitcast %"class.std::basic_ostream"* %52 to i8**
  %54 = load i8*, i8** %53, align 8, !tbaa !13
  %55 = getelementptr i8, i8* %54, i64 -24
  %56 = bitcast i8* %55 to i64*
  %57 = load i64, i64* %56, align 8
  %58 = bitcast %"class.std::basic_ostream"* %52 to i8*
  %59 = add nsw i64 %57, 240
  %60 = getelementptr inbounds i8, i8* %58, i64 %59
  %61 = bitcast i8* %60 to %"class.std::ctype"**
  %62 = load %"class.std::ctype"*, %"class.std::ctype"** %61, align 8, !tbaa !15
  %63 = icmp eq %"class.std::ctype"* %62, null
  br i1 %63, label %64, label %65

64:                                               ; preds = %50
  call void @_ZSt16__throw_bad_castv() #9
  unreachable

65:                                               ; preds = %50
  %66 = getelementptr inbounds %"class.std::ctype", %"class.std::ctype"* %62, i64 0, i32 8
  %67 = load i8, i8* %66, align 8, !tbaa !19
  %68 = icmp eq i8 %67, 0
  br i1 %68, label %72, label %69

69:                                               ; preds = %65
  %70 = getelementptr inbounds %"class.std::ctype", %"class.std::ctype"* %62, i64 0, i32 9, i64 10
  %71 = load i8, i8* %70, align 1, !tbaa !21
  br label %78

72:                                               ; preds = %65
  call void @_ZNKSt5ctypeIcE13_M_widen_initEv(%"class.std::ctype"* nonnull align 8 dereferenceable(570) %62)
  %73 = bitcast %"class.std::ctype"* %62 to i8 (%"class.std::ctype"*, i8)***
  %74 = load i8 (%"class.std::ctype"*, i8)**, i8 (%"class.std::ctype"*, i8)*** %73, align 8, !tbaa !13
  %75 = getelementptr inbounds i8 (%"class.std::ctype"*, i8)*, i8 (%"class.std::ctype"*, i8)** %74, i64 6
  %76 = load i8 (%"class.std::ctype"*, i8)*, i8 (%"class.std::ctype"*, i8)** %75, align 8
  %77 = call signext i8 %76(%"class.std::ctype"* nonnull align 8 dereferenceable(570) %62, i8 signext 10)
  br label %78

78:                                               ; preds = %69, %72
  %79 = phi i8 [ %71, %69 ], [ %77, %72 ]
  %80 = call nonnull align 8 dereferenceable(8) %"class.std::basic_ostream"* @_ZNSo3putEc(%"class.std::basic_ostream"* nonnull align 8 dereferenceable(8) %52, i8 signext %79)
  %81 = call nonnull align 8 dereferenceable(8) %"class.std::basic_ostream"* @_ZNSo5flushEv(%"class.std::basic_ostream"* nonnull align 8 dereferenceable(8) %80)
  %82 = add nuw nsw i64 %9, 1
  %83 = load i32, i32* %1, align 4, !tbaa !5
  %84 = sext i32 %83 to i64
  %85 = icmp slt i64 %9, %84
  br i1 %85, label %8, label %86, !llvm.loop !22

86:                                               ; preds = %78, %0
  call void @llvm.lifetime.end.p0i8(i64 84, i8* nonnull %4) #8
  call void @llvm.lifetime.end.p0i8(i64 4, i8* nonnull %3) #8
  ret i32 0
}

; Function Attrs: argmemonly mustprogress nofree nosync nounwind willreturn
declare void @llvm.lifetime.start.p0i8(i64 immarg, i8* nocapture) #4

declare nonnull align 8 dereferenceable(16) %"class.std::basic_istream"* @_ZNSirsERi(%"class.std::basic_istream"* nonnull align 8 dereferenceable(16), i32* nonnull align 4 dereferenceable(4)) local_unnamed_addr #0

; Function Attrs: mustprogress nofree norecurse nosync nounwind readnone sspstrong uwtable willreturn
define dso_local i32 @_Z13Rabbit_Amounti(i32 %0) local_unnamed_addr #5 {
  %2 = add i32 %0, -1
  %3 = icmp ult i32 %2, 2
  br i1 %3, label %39, label %4

4:                                                ; preds = %1
  %5 = icmp slt i32 %0, 3
  br i1 %5, label %39, label %6

6:                                                ; preds = %4
  %7 = add i32 %0, -2
  %8 = add i32 %0, -3
  %9 = and i32 %7, 7
  %10 = icmp ult i32 %8, 7
  br i1 %10, label %27, label %11

11:                                               ; preds = %6
  %12 = and i32 %7, -8
  br label %13

13:                                               ; preds = %13, %11
  %14 = phi i32 [ 1, %11 ], [ %24, %13 ]
  %15 = phi i32 [ 1, %11 ], [ %23, %13 ]
  %16 = phi i32 [ %12, %11 ], [ %25, %13 ]
  %17 = add nsw i32 %14, %15
  %18 = add nsw i32 %17, %14
  %19 = add nsw i32 %18, %17
  %20 = add nsw i32 %19, %18
  %21 = add nsw i32 %20, %19
  %22 = add nsw i32 %21, %20
  %23 = add nsw i32 %22, %21
  %24 = add nsw i32 %23, %22
  %25 = add i32 %16, -8
  %26 = icmp eq i32 %25, 0
  br i1 %26, label %27, label %13, !llvm.loop !9

27:                                               ; preds = %13, %6
  %28 = phi i32 [ undef, %6 ], [ %24, %13 ]
  %29 = phi i32 [ 1, %6 ], [ %24, %13 ]
  %30 = phi i32 [ 1, %6 ], [ %23, %13 ]
  %31 = icmp eq i32 %9, 0
  br i1 %31, label %39, label %32

32:                                               ; preds = %27, %32
  %33 = phi i32 [ %36, %32 ], [ %29, %27 ]
  %34 = phi i32 [ %33, %32 ], [ %30, %27 ]
  %35 = phi i32 [ %37, %32 ], [ %9, %27 ]
  %36 = add nsw i32 %33, %34
  %37 = add i32 %35, -1
  %38 = icmp eq i32 %37, 0
  br i1 %38, label %39, label %32, !llvm.loop !23

39:                                               ; preds = %27, %32, %4, %1
  %40 = phi i32 [ 1, %1 ], [ undef, %4 ], [ %28, %27 ], [ %36, %32 ]
  ret i32 %40
}

declare nonnull align 8 dereferenceable(8) %"class.std::basic_ostream"* @_ZNSolsEi(%"class.std::basic_ostream"* nonnull align 8 dereferenceable(8), i32) local_unnamed_addr #0

; Function Attrs: argmemonly mustprogress nofree nosync nounwind willreturn
declare void @llvm.lifetime.end.p0i8(i64 immarg, i8* nocapture) #4

declare nonnull align 8 dereferenceable(8) %"class.std::basic_ostream"* @_ZNSo3putEc(%"class.std::basic_ostream"* nonnull align 8 dereferenceable(8), i8 signext) local_unnamed_addr #0

declare nonnull align 8 dereferenceable(8) %"class.std::basic_ostream"* @_ZNSo5flushEv(%"class.std::basic_ostream"* nonnull align 8 dereferenceable(8)) local_unnamed_addr #0

; Function Attrs: noreturn
declare void @_ZSt16__throw_bad_castv() local_unnamed_addr #6

declare void @_ZNKSt5ctypeIcE13_M_widen_initEv(%"class.std::ctype"* nonnull align 8 dereferenceable(570)) local_unnamed_addr #0

; Function Attrs: sspstrong uwtable
define internal void @_GLOBAL__sub_I_1314.cpp() #7 section ".text.startup" {
  tail call void @_ZNSt8ios_base4InitC1Ev(%"class.std::ios_base::Init"* nonnull align 1 dereferenceable(1) @_ZStL8__ioinit)
  %1 = tail call i32 @__cxa_atexit(void (i8*)* bitcast (void (%"class.std::ios_base::Init"*)* @_ZNSt8ios_base4InitD1Ev to void (i8*)*), i8* getelementptr inbounds (%"class.std::ios_base::Init", %"class.std::ios_base::Init"* @_ZStL8__ioinit, i64 0, i32 0), i8* nonnull @__dso_handle) #8
  ret void
}


!llvm.module.flags = !{!0, !1, !2, !3}
!llvm.ident = !{!4}

!0 = !{i32 1, !"wchar_size", i32 4}
!1 = !{i32 7, !"PIC Level", i32 2}
!2 = !{i32 7, !"PIE Level", i32 2}
!3 = !{i32 7, !"uwtable", i32 1}
!4 = !{!"clang version 13.0.0"}
!5 = !{!6, !6, i64 0}
!6 = !{!"int", !7, i64 0}
!7 = !{!"omnipotent char", !8, i64 0}
!8 = !{!"Simple C++ TBAA"}
!9 = distinct !{!9, !10}
!10 = !{!"llvm.loop.mustprogress"}
!11 = distinct !{!11, !12}
!12 = !{!"llvm.loop.unroll.disable"}
!13 = !{!14, !14, i64 0}
!14 = !{!"vtable pointer", !8, i64 0}
!15 = !{!16, !17, i64 240}
!16 = !{!"_ZTSSt9basic_iosIcSt11char_traitsIcEE", !17, i64 216, !7, i64 224, !18, i64 225, !17, i64 232, !17, i64 240, !17, i64 248, !17, i64 256}
!17 = !{!"any pointer", !7, i64 0}
!18 = !{!"bool", !7, i64 0}
!19 = !{!20, !7, i64 56}
!20 = !{!"_ZTSSt5ctypeIcE", !17, i64 16, !18, i64 24, !17, i64 32, !17, i64 40, !17, i64 48, !7, i64 56, !7, i64 57, !7, i64 313, !7, i64 569}
!21 = !{!7, !7, i64 0}
!22 = distinct !{!22, !10}
!23 = distinct !{!23, !12}
